target datalayout = "e-m:e-p270:32:32-p271:32:32-p272:64:64-i64:64-i128:128-f80:128-n8:16:32:64-S128"
target triple = "x86_64-pc-linux-gnu"

; Function Attrs: inlinehint nounwind uwtable
define internal i64 @PointerGetDatum(ptr noundef %0) #0 {
  %2 = alloca ptr, align 8
  store ptr %0, ptr %2, align 8
  %3 = load ptr, ptr %2, align 8
  %4 = ptrtoint ptr %3 to i64
  ret i64 %4
}

; Function Attrs: inlinehint nounwind uwtable
define internal i32 @DatumGetInt32(i64 noundef %0) #0 {
  %2 = alloca i64, align 8
  store i64 %0, ptr %2, align 8
  %3 = load i64, ptr %2, align 8
  %4 = trunc i64 %3 to i32
  ret i32 %4
}

; Function Attrs: inlinehint nounwind uwtable
define internal i64 @BoolGetDatum(i1 noundef zeroext %0) #0 {
  %2 = alloca i8, align 1
  %3 = zext i1 %0 to i8
  store i8 %3, ptr %2, align 1
  %4 = load i8, ptr %2, align 1, !range !4, !noundef !5
  %5 = trunc i8 %4 to i1
  %6 = select i1 %5, i32 1, i32 0
  %7 = sext i32 %6 to i64
  ret i64 %7
}

; Function Attrs: inlinehint nounwind uwtable
define internal i64 @CStringGetDatum(ptr noundef %0) #0 {
  %2 = alloca ptr, align 8
  store ptr %0, ptr %2, align 8
  %3 = load ptr, ptr %2, align 8
  %4 = call i64 @PointerGetDatum(ptr noundef %3)
  ret i64 %4
}

; Function Attrs: inlinehint nounwind uwtable
define internal i64 @Int32GetDatum(i32 noundef %0) #0 {
  %2 = alloca i32, align 4
  store i32 %0, ptr %2, align 4
  %3 = load i32, ptr %2, align 4
  %4 = sext i32 %3 to i64
  ret i64 %4
}

; Function Attrs: nounwind uwtable
define dso_local i32 @pg_do_encoding_conversion_buf(i32 noundef %0, i32 noundef %1, i32 noundef %2, ptr noundef %3, i32 noundef %4, ptr noundef %5, i32 noundef %6, i1 noundef zeroext %7) #1 {
  %9 = alloca i32, align 4
  %10 = alloca i32, align 4
  %11 = alloca i32, align 4
  %12 = alloca ptr, align 8
  %13 = alloca i32, align 4
  %14 = alloca ptr, align 8
  %15 = alloca i32, align 4
  %16 = alloca i8, align 1
  %17 = alloca i64, align 8
  store i32 %0, ptr %9, align 4
  store i32 %1, ptr %10, align 4
  store i32 %2, ptr %11, align 4
  store ptr %3, ptr %12, align 8
  store i32 %4, ptr %13, align 4
  store ptr %5, ptr %14, align 8
  store i32 %6, ptr %15, align 4
  %18 = zext i1 %7 to i8
  store i8 %18, ptr %16, align 1
  call void @llvm.lifetime.start.p0(i64 8, ptr %17) #9
  %19 = load i32, ptr %13, align 4
  %20 = sext i32 %19 to i64
  %21 = load i32, ptr %15, align 4
  %22 = sub i32 %21, 1
  %23 = sext i32 %22 to i64
  %24 = udiv i64 %23, 4
  %25 = icmp uge i64 %20, %24
  br i1 %25, label %26, label %32

26:                                               ; preds = %8
  %27 = load i32, ptr %15, align 4
  %28 = sub i32 %27, 1
  %29 = sext i32 %28 to i64
  %30 = udiv i64 %29, 4
  %31 = trunc i64 %30 to i32
  store i32 %31, ptr %13, align 4
  br label %32

32:                                               ; preds = %26, %8
  %33 = load i32, ptr %9, align 4
  %34 = load i32, ptr %10, align 4
  %35 = call i64 @Int32GetDatum(i32 noundef %34)
  %36 = load i32, ptr %11, align 4
  %37 = call i64 @Int32GetDatum(i32 noundef %36)
  %38 = load ptr, ptr %12, align 8
  %39 = call i64 @CStringGetDatum(ptr noundef %38)
  %40 = load ptr, ptr %14, align 8
  %41 = call i64 @CStringGetDatum(ptr noundef %40)
  %42 = load i32, ptr %13, align 4
  %43 = call i64 @Int32GetDatum(i32 noundef %42)
  %44 = load i8, ptr %16, align 1, !range !4, !noundef !5
  %45 = trunc i8 %44 to i1
  %46 = call i64 @BoolGetDatum(i1 noundef zeroext %45)
  %47 = call i64 @OidFunctionCall6Coll(i32 noundef %33, i32 noundef 0, i64 noundef %35, i64 noundef %37, i64 noundef %39, i64 noundef %41, i64 noundef %43, i64 noundef %46)
  store i64 %47, ptr %17, align 8
  %48 = load i64, ptr %17, align 8
  %49 = call i32 @DatumGetInt32(i64 noundef %48)
  call void @llvm.lifetime.end.p0(i64 8, ptr %17) #9
  ret i32 %49
}