; Function Attrs: nounwind uwtable
define dso_local i32 @pg_do_encoding_conversion_buf(i32 noundef %0, i32 noundef %1, i32 noundef %2, ptr noundef %3, i32 noundef %4, ptr noundef %5, i32 noundef %6, i1 noundef zeroext %7) local_unnamed_addr #0 {
  %9 = sext i32 %4 to i64
  %10 = add i32 %6, -1
  %11 = sext i32 %10 to i64
  %12 = lshr i64 %11, 2
  %.not = icmp ugt i64 %12, %9
  %13 = ashr i32 %10, 2
  %spec.select = select i1 %.not, i32 %4, i32 %13
  %14 = sext i32 %1 to i64
  %15 = sext i32 %2 to i64
  %16 = ptrtoint ptr %3 to i64
  %17 = ptrtoint ptr %5 to i64
  %18 = sext i32 %spec.select to i64
  %19 = zext i1 %7 to i64
  %20 = tail call i64 @OidFunctionCall6Coll(i32 noundef %0, i32 noundef 0, i64 noundef %14, i64 noundef %15, i64 noundef %16, i64 noundef %17, i64 noundef %18, i64 noundef %19) #13
  %21 = trunc i64 %20 to i32
  ret i32 %21
}